; Function Attrs: null_pointer_is_valid sspstrong uwtable
define internal fastcc range(i32 15, 17) i32 @dissect_cs_channel_map_ind(ptr noundef %0, ptr noundef %1, i32 noundef range(i32 3, 5) %2) unnamed_addr #0 {
  %4 = load i32, ptr @hf_control_cs_channel_map_ind_0, align 4
  %5 = tail call ptr @proto_tree_add_item(ptr noundef %1, i32 noundef %4, ptr noundef %0, i32 noundef %2, i32 noundef 1, i32 noundef -2147483648)
  %6 = add nuw nsw i32 %2, 1
  %7 = load i32, ptr @hf_control_cs_channel_map_ind_1, align 4
  %8 = tail call ptr @proto_tree_add_item(ptr noundef %1, i32 noundef %7, ptr noundef %0, i32 noundef %6, i32 noundef 1, i32 noundef -2147483648)
  %9 = add nuw nsw i32 %2, 2
  %10 = load i32, ptr @hf_control_cs_channel_map_ind_2, align 4
  %11 = tail call ptr @proto_tree_add_item(ptr noundef %1, i32 noundef %10, ptr noundef %0, i32 noundef %9, i32 noundef 1, i32 noundef -2147483648)
  %12 = add nuw nsw i32 %2, 3
  %13 = load i32, ptr @hf_control_cs_channel_map_ind_3, align 4
  %14 = tail call ptr @proto_tree_add_item(ptr noundef %1, i32 noundef %13, ptr noundef %0, i32 noundef %12, i32 noundef 1, i32 noundef -2147483648)
  %15 = add nuw nsw i32 %2, 4
  %16 = load i32, ptr @hf_control_cs_channel_map_ind_4, align 4
  %17 = tail call ptr @proto_tree_add_item(ptr noundef %1, i32 noundef %16, ptr noundef %0, i32 noundef %15, i32 noundef 1, i32 noundef -2147483648)
  %18 = add nuw nsw i32 %2, 5
  %19 = load i32, ptr @hf_control_cs_channel_map_ind_5, align 4
  %20 = tail call ptr @proto_tree_add_item(ptr noundef %1, i32 noundef %19, ptr noundef %0, i32 noundef %18, i32 noundef 1, i32 noundef -2147483648)
  %21 = add nuw nsw i32 %2, 6
  %22 = load i32, ptr @hf_control_cs_channel_map_ind_6, align 4
  %23 = tail call ptr @proto_tree_add_item(ptr noundef %1, i32 noundef %22, ptr noundef %0, i32 noundef %21, i32 noundef 1, i32 noundef -2147483648)
  %24 = add nuw nsw i32 %2, 7
  %25 = load i32, ptr @hf_control_cs_channel_map_ind_7, align 4
  %26 = tail call ptr @proto_tree_add_item(ptr noundef %1, i32 noundef %25, ptr noundef %0, i32 noundef %24, i32 noundef 1, i32 noundef -2147483648)
  %27 = or disjoint i32 %2, 8
  %28 = load i32, ptr @hf_control_cs_channel_map_ind_8, align 4
  %29 = tail call ptr @proto_tree_add_item(ptr noundef %1, i32 noundef %28, ptr noundef %0, i32 noundef %27, i32 noundef 1, i32 noundef -2147483648)
  %30 = add nuw nsw i32 %2, 9
  %31 = load i32, ptr @hf_control_cs_channel_map_ind_9, align 4
  %32 = tail call ptr @proto_tree_add_item(ptr noundef %1, i32 noundef %31, ptr noundef %0, i32 noundef %30, i32 noundef 1, i32 noundef -2147483648)
  %33 = add nuw nsw i32 %2, 10
  %34 = load i32, ptr @hf_control_cs_channel_map_ind_instant, align 4
  %35 = tail call ptr @proto_tree_add_item(ptr noundef %1, i32 noundef %34, ptr noundef %0, i32 noundef %33, i32 noundef 2, i32 noundef -2147483648)
  %36 = add nuw nsw i32 %2, 12
  ret i32 %36
}